target datalayout = "e-m:e-p270:32:32-p271:32:32-p272:64:64-i64:64-i128:128-f80:128-n8:16:32:64-S128"
target triple = "x86_64-pc-linux-gnu"

%struct.SDL_WaylandSeat = type { ptr, ptr, ptr, ptr, ptr, %struct.wl_list, i32, i32, %struct.anon, %struct.anon.1, %struct.anon.4, %struct.anon.5, %struct.anon.6 }
%struct.wl_list = type { ptr, ptr }
%struct.anon = type { ptr, ptr, ptr, ptr, ptr, %struct.SDL_WaylandKeyboardRepeat, i64, i16, i16, i32, i8, %struct.anon.0 }
%struct.SDL_WaylandKeyboardRepeat = type { i32, i32, i32, i8, i8, i32, i64, i64, i64, i32, [8 x i8] }
%struct.anon.0 = type { ptr, ptr, ptr, ptr, i32, i32, i32, i32, i32, i32, i32, i32, i32, i32, i32 }
%struct.anon.1 = type { ptr, ptr, ptr, ptr, ptr, ptr, ptr, ptr, i64, i32, i32, %struct.SDL_Point, i32, %struct.anon.2, %struct.anon.3 }
%struct.SDL_Point = type { i32, i32 }
%struct.anon.2 = type { i32, float, i32, float, i64, i32 }
%struct.anon.3 = type { ptr, ptr, ptr, i64, i64, i32 }
%struct.anon.4 = type { ptr, ptr, i64, %struct.wl_list }
%struct.anon.5 = type { ptr, %struct.SDL_Rect, i8, i8 }
%struct.SDL_Rect = type { i32, i32, i32, i32 }
%struct.anon.6 = type { ptr, %struct.wl_list }

@WAYLAND_xkb_state_update_mask = external global ptr, align 8
@WAYLAND_xkb_state_key_get_syms = external global ptr, align 8
@WAYLAND_xkb_compose_state_feed = external global ptr, align 8
@WAYLAND_xkb_compose_state_get_status = external global ptr, align 8
@WAYLAND_xkb_compose_state_get_one_sym = external global ptr, align 8
@WAYLAND_xkb_keysym_to_utf8 = external global ptr, align 8

; Function Attrs: nounwind uwtable
define internal void @keyboard_repeat_set_text(ptr noundef %0, ptr noundef %1) #0 {
  %3 = alloca ptr, align 8
  %4 = alloca ptr, align 8
  store ptr %0, ptr %3, align 8
  store ptr %1, ptr %4, align 8
  %5 = load ptr, ptr %3, align 8
  %6 = getelementptr inbounds nuw %struct.SDL_WaylandKeyboardRepeat, ptr %5, i32 0, i32 3
  %7 = load i8, ptr %6, align 4, !range !7, !noundef !8
  %8 = trunc i8 %7 to i1
  br i1 %8, label %9, label %14

9:                                                ; preds = %2
  %10 = load ptr, ptr %3, align 8
  %11 = getelementptr inbounds nuw %struct.SDL_WaylandKeyboardRepeat, ptr %10, i32 0, i32 10
  %12 = getelementptr inbounds [8 x i8], ptr %11, i64 0, i64 0
  %13 = load ptr, ptr %4, align 8
  call void @llvm.memcpy.p0.p0.i64(ptr align 4 %12, ptr align 1 %13, i64 1, i1 false)
  br label %14

14:                                               ; preds = %9, %2
  ret void
}

; Function Attrs: nounwind uwtable
define internal zeroext i1 @keyboard_input_get_text(ptr noundef %0, ptr noundef %1, i32 noundef %2, i1 noundef zeroext %3, ptr noundef %4) #0 {
  %6 = alloca i1, align 1
  %7 = alloca ptr, align 8
  %8 = alloca ptr, align 8
  %9 = alloca i32, align 4
  %10 = alloca i8, align 1
  %11 = alloca ptr, align 8
  %12 = alloca ptr, align 8
  %13 = alloca i32, align 4
  %14 = alloca i32, align 4
  store ptr %0, ptr %7, align 8
  store ptr %1, ptr %8, align 8
  store i32 %2, ptr %9, align 4
  %15 = zext i1 %3 to i8
  store i8 %15, ptr %10, align 1
  store ptr %4, ptr %11, align 8
  call void @llvm.lifetime.start.p0(i64 8, ptr %12) #10
  call void @llvm.lifetime.start.p0(i64 4, ptr %13) #10
  %16 = load ptr, ptr %8, align 8
  %17 = getelementptr inbounds nuw %struct.SDL_WaylandSeat, ptr %16, i32 0, i32 8
  %18 = getelementptr inbounds nuw %struct.anon, ptr %17, i32 0, i32 3
  %19 = load ptr, ptr %18, align 8
  %20 = icmp ne ptr %19, null
  br i1 %20, label %21, label %28

21:                                               ; preds = %5
  %22 = load ptr, ptr %8, align 8
  %23 = getelementptr inbounds nuw %struct.SDL_WaylandSeat, ptr %22, i32 0, i32 8
  %24 = getelementptr inbounds nuw %struct.anon, ptr %23, i32 0, i32 11
  %25 = getelementptr inbounds nuw %struct.anon.0, ptr %24, i32 0, i32 1
  %26 = load ptr, ptr %25, align 8
  %27 = icmp ne ptr %26, null
  br i1 %27, label %29, label %28

28:                                               ; preds = %21, %5
  store i1 false, ptr %6, align 1
  store i32 1, ptr %14, align 4
  br label %109

29:                                               ; preds = %21
  %30 = load ptr, ptr @WAYLAND_xkb_state_key_get_syms, align 8
  %31 = load ptr, ptr %8, align 8
  %32 = getelementptr inbounds nuw %struct.SDL_WaylandSeat, ptr %31, i32 0, i32 8
  %33 = getelementptr inbounds nuw %struct.anon, ptr %32, i32 0, i32 11
  %34 = getelementptr inbounds nuw %struct.anon.0, ptr %33, i32 0, i32 1
  %35 = load ptr, ptr %34, align 8
  %36 = load i32, ptr %9, align 4
  %37 = add i32 %36, 8
  %38 = call i32 %30(ptr noundef %35, i32 noundef %37, ptr noundef %12)
  %39 = icmp ne i32 %38, 1
  br i1 %39, label %40, label %41

40:                                               ; preds = %29
  store i1 false, ptr %6, align 1
  store i32 1, ptr %14, align 4
  br label %109

41:                                               ; preds = %29
  %42 = load ptr, ptr %12, align 8
  %43 = getelementptr inbounds i32, ptr %42, i64 0
  %44 = load i32, ptr %43, align 4
  store i32 %44, ptr %13, align 4
  %45 = load i32, ptr %13, align 4
  %46 = load i32, ptr %9, align 4
  %47 = add i32 %46, 8
  %48 = load i8, ptr %10, align 1, !range !7, !noundef !8
  %49 = trunc i8 %48 to i1
  %50 = call zeroext i1 @SDL_IME_ProcessKeyEvent(i32 noundef %45, i32 noundef %47, i1 noundef zeroext %49)
  br i1 %50, label %51, label %57

51:                                               ; preds = %41
  %52 = load ptr, ptr %11, align 8
  %53 = icmp ne ptr %52, null
  br i1 %53, label %54, label %56

54:                                               ; preds = %51
  %55 = load ptr, ptr %11, align 8
  store i8 1, ptr %55, align 1
  br label %56

56:                                               ; preds = %54, %51
  store i1 true, ptr %6, align 1
  store i32 1, ptr %14, align 4
  br label %109

57:                                               ; preds = %41
  %58 = load i8, ptr %10, align 1, !range !7, !noundef !8
  %59 = trunc i8 %58 to i1
  br i1 %59, label %61, label %60

60:                                               ; preds = %57
  store i1 false, ptr %6, align 1
  store i32 1, ptr %14, align 4
  br label %109

61:                                               ; preds = %57
  %62 = load ptr, ptr %8, align 8
  %63 = getelementptr inbounds nuw %struct.SDL_WaylandSeat, ptr %62, i32 0, i32 8
  %64 = getelementptr inbounds nuw %struct.anon, ptr %63, i32 0, i32 11
  %65 = getelementptr inbounds nuw %struct.anon.0, ptr %64, i32 0, i32 3
  %66 = load ptr, ptr %65, align 8
  %67 = icmp ne ptr %66, null
  br i1 %67, label %68, label %103

68:                                               ; preds = %61
  %69 = load ptr, ptr @WAYLAND_xkb_compose_state_feed, align 8
  %70 = load ptr, ptr %8, align 8
  %71 = getelementptr inbounds nuw %struct.SDL_WaylandSeat, ptr %70, i32 0, i32 8
  %72 = getelementptr inbounds nuw %struct.anon, ptr %71, i32 0, i32 11
  %73 = getelementptr inbounds nuw %struct.anon.0, ptr %72, i32 0, i32 3
  %74 = load ptr, ptr %73, align 8
  %75 = load i32, ptr %13, align 4
  %76 = call i32 %69(ptr noundef %74, i32 noundef %75)
  %77 = icmp eq i32 %76, 1
  br i1 %77, label %78, label %103

78:                                               ; preds = %68
  %79 = load ptr, ptr @WAYLAND_xkb_compose_state_get_status, align 8
  %80 = load ptr, ptr %8, align 8
  %81 = getelementptr inbounds nuw %struct.SDL_WaylandSeat, ptr %80, i32 0, i32 8
  %82 = getelementptr inbounds nuw %struct.anon, ptr %81, i32 0, i32 11
  %83 = getelementptr inbounds nuw %struct.anon.0, ptr %82, i32 0, i32 3
  %84 = load ptr, ptr %83, align 8
  %85 = call i32 %79(ptr noundef %84)
  switch i32 %85, label %93 [
    i32 1, label %86
    i32 3, label %92
    i32 0, label %102
    i32 2, label %94
  ]

86:                                               ; preds = %78
  %87 = load ptr, ptr %11, align 8
  %88 = icmp ne ptr %87, null
  br i1 %88, label %89, label %91

89:                                               ; preds = %86
  %90 = load ptr, ptr %11, align 8
  store i8 1, ptr %90, align 1
  br label %91

91:                                               ; preds = %89, %86
  store i1 true, ptr %6, align 1
  store i32 1, ptr %14, align 4
  br label %109

92:                                               ; preds = %78
  br label %93

93:                                               ; preds = %78, %92
  store i32 0, ptr %13, align 4
  br label %102

94:                                               ; preds = %78
  %95 = load ptr, ptr @WAYLAND_xkb_compose_state_get_one_sym, align 8
  %96 = load ptr, ptr %8, align 8
  %97 = getelementptr inbounds nuw %struct.SDL_WaylandSeat, ptr %96, i32 0, i32 8
  %98 = getelementptr inbounds nuw %struct.anon, ptr %97, i32 0, i32 11
  %99 = getelementptr inbounds nuw %struct.anon.0, ptr %98, i32 0, i32 3
  %100 = load ptr, ptr %99, align 8
  %101 = call i32 %95(ptr noundef %100)
  store i32 %101, ptr %13, align 4
  br label %102

102:                                              ; preds = %94, %78, %93
  br label %103

103:                                              ; preds = %102, %68, %61
  %104 = load ptr, ptr @WAYLAND_xkb_keysym_to_utf8, align 8
  %105 = load i32, ptr %13, align 4
  %106 = load ptr, ptr %7, align 8
  %107 = call i32 %104(i32 noundef %105, ptr noundef %106, i64 noundef 8)
  %108 = icmp sgt i32 %107, 0
  store i1 %108, ptr %6, align 1
  store i32 1, ptr %14, align 4
  br label %109

109:                                              ; preds = %103, %91, %60, %56, %40, %28
  call void @llvm.lifetime.end.p0(i64 4, ptr %13) #10
  call void @llvm.lifetime.end.p0(i64 8, ptr %12) #10
  %110 = load i1, ptr %6, align 1
  ret i1 %110
}

; Function Attrs: nounwind uwtable
define internal i32 @keyboard_repeat_get_key(ptr noundef %0) #0 {
  %2 = alloca i32, align 4
  %3 = alloca ptr, align 8
  store ptr %0, ptr %3, align 8
  %4 = load ptr, ptr %3, align 8
  %5 = getelementptr inbounds nuw %struct.SDL_WaylandKeyboardRepeat, ptr %4, i32 0, i32 3
  %6 = load i8, ptr %5, align 4, !range !7, !noundef !8
  %7 = trunc i8 %6 to i1
  br i1 %7, label %8, label %17

8:                                                ; preds = %1
  %9 = load ptr, ptr %3, align 8
  %10 = getelementptr inbounds nuw %struct.SDL_WaylandKeyboardRepeat, ptr %9, i32 0, i32 4
  %11 = load i8, ptr %10, align 1, !range !7, !noundef !8
  %12 = trunc i8 %11 to i1
  br i1 %12, label %13, label %17

13:                                               ; preds = %8
  %14 = load ptr, ptr %3, align 8
  %15 = getelementptr inbounds nuw %struct.SDL_WaylandKeyboardRepeat, ptr %14, i32 0, i32 5
  %16 = load i32, ptr %15, align 8
  store i32 %16, ptr %2, align 4
  br label %18

17:                                               ; preds = %8, %1
  store i32 0, ptr %2, align 4
  br label %18

18:                                               ; preds = %17, %13
  %19 = load i32, ptr %2, align 4
  ret i32 %19
}

; Function Attrs: nounwind uwtable
define internal zeroext i1 @keyboard_repeat_is_set(ptr noundef %0) #0 {
  %2 = alloca ptr, align 8
  store ptr %0, ptr %2, align 8
  %3 = load ptr, ptr %2, align 8
  %4 = getelementptr inbounds nuw %struct.SDL_WaylandKeyboardRepeat, ptr %3, i32 0, i32 3
  %5 = load i8, ptr %4, align 4, !range !7, !noundef !8
  %6 = trunc i8 %5 to i1
  br i1 %6, label %7, label %12

7:                                                ; preds = %1
  %8 = load ptr, ptr %2, align 8
  %9 = getelementptr inbounds nuw %struct.SDL_WaylandKeyboardRepeat, ptr %8, i32 0, i32 4
  %10 = load i8, ptr %9, align 1, !range !7, !noundef !8
  %11 = trunc i8 %10 to i1
  br label %12

12:                                               ; preds = %7, %1
  %13 = phi i1 [ false, %1 ], [ %11, %7 ]
  ret i1 %13
}

; Function Attrs: nounwind uwtable
define internal void @keyboard_handle_modifiers(ptr noundef %0, ptr noundef %1, i32 noundef %2, i32 noundef %3, i32 noundef %4, i32 noundef %5, i32 noundef %6) #0 {
  %8 = alloca ptr, align 8
  %9 = alloca ptr, align 8
  %10 = alloca i32, align 4
  %11 = alloca i32, align 4
  %12 = alloca i32, align 4
  %13 = alloca i32, align 4
  %14 = alloca i32, align 4
  %15 = alloca ptr, align 8
  %16 = alloca i32, align 4
  %17 = alloca [8 x i8], align 1
  %18 = alloca i32, align 4
  store ptr %0, ptr %8, align 8
  store ptr %1, ptr %9, align 8
  store i32 %2, ptr %10, align 4
  store i32 %3, ptr %11, align 4
  store i32 %4, ptr %12, align 4
  store i32 %5, ptr %13, align 4
  store i32 %6, ptr %14, align 4
  call void @llvm.lifetime.start.p0(i64 8, ptr %15) #10
  %19 = load ptr, ptr %8, align 8
  store ptr %19, ptr %15, align 8
  %20 = load ptr, ptr %15, align 8
  %21 = getelementptr inbounds nuw %struct.SDL_WaylandSeat, ptr %20, i32 0, i32 8
  %22 = getelementptr inbounds nuw %struct.anon, ptr %21, i32 0, i32 11
  %23 = getelementptr inbounds nuw %struct.anon.0, ptr %22, i32 0, i32 1
  %24 = load ptr, ptr %23, align 8
  %25 = icmp eq ptr %24, null
  br i1 %25, label %26, label %27

26:                                               ; preds = %7
  store i32 1, ptr %16, align 4
  br label %87

27:                                               ; preds = %7
  %28 = load ptr, ptr @WAYLAND_xkb_state_update_mask, align 8
  %29 = load ptr, ptr %15, align 8
  %30 = getelementptr inbounds nuw %struct.SDL_WaylandSeat, ptr %29, i32 0, i32 8
  %31 = getelementptr inbounds nuw %struct.anon, ptr %30, i32 0, i32 11
  %32 = getelementptr inbounds nuw %struct.anon.0, ptr %31, i32 0, i32 1
  %33 = load ptr, ptr %32, align 8
  %34 = load i32, ptr %11, align 4
  %35 = load i32, ptr %12, align 4
  %36 = load i32, ptr %13, align 4
  %37 = load i32, ptr %14, align 4
  %38 = call i32 %28(ptr noundef %33, i32 noundef %34, i32 noundef %35, i32 noundef %36, i32 noundef 0, i32 noundef 0, i32 noundef %37)
  %39 = load i32, ptr %11, align 4
  %40 = load ptr, ptr %15, align 8
  %41 = getelementptr inbounds nuw %struct.SDL_WaylandSeat, ptr %40, i32 0, i32 8
  %42 = getelementptr inbounds nuw %struct.anon, ptr %41, i32 0, i32 11
  %43 = getelementptr inbounds nuw %struct.anon.0, ptr %42, i32 0, i32 13
  store i32 %39, ptr %43, align 4
  %44 = load i32, ptr %12, align 4
  %45 = load i32, ptr %13, align 4
  %46 = or i32 %44, %45
  %47 = load ptr, ptr %15, align 8
  %48 = getelementptr inbounds nuw %struct.SDL_WaylandSeat, ptr %47, i32 0, i32 8
  %49 = getelementptr inbounds nuw %struct.anon, ptr %48, i32 0, i32 11
  %50 = getelementptr inbounds nuw %struct.anon.0, ptr %49, i32 0, i32 14
  store i32 %46, ptr %50, align 8
  %51 = load ptr, ptr %15, align 8
  call void @Wayland_ReconcileModifiers(ptr noundef %51, i1 noundef zeroext false)
  %52 = load ptr, ptr %15, align 8
  %53 = getelementptr inbounds nuw %struct.SDL_WaylandSeat, ptr %52, i32 0, i32 8
  %54 = getelementptr inbounds nuw %struct.anon, ptr %53, i32 0, i32 5
  %55 = call zeroext i1 @keyboard_repeat_is_set(ptr noundef %54)
  br i1 %55, label %56, label %71

56:                                               ; preds = %27
  call void @llvm.lifetime.start.p0(i64 8, ptr %17) #10
  call void @llvm.lifetime.start.p0(i64 4, ptr %18) #10
  %57 = load ptr, ptr %15, align 8
  %58 = getelementptr inbounds nuw %struct.SDL_WaylandSeat, ptr %57, i32 0, i32 8
  %59 = getelementptr inbounds nuw %struct.anon, ptr %58, i32 0, i32 5
  %60 = call i32 @keyboard_repeat_get_key(ptr noundef %59)
  store i32 %60, ptr %18, align 4
  %61 = getelementptr inbounds [8 x i8], ptr %17, i64 0, i64 0
  %62 = load ptr, ptr %15, align 8
  %63 = load i32, ptr %18, align 4
  %64 = call zeroext i1 @keyboard_input_get_text(ptr noundef %61, ptr noundef %62, i32 noundef %63, i1 noundef zeroext true, ptr noundef null)
  br i1 %64, label %65, label %70

65:                                               ; preds = %56
  %66 = load ptr, ptr %15, align 8
  %67 = getelementptr inbounds nuw %struct.SDL_WaylandSeat, ptr %66, i32 0, i32 8
  %68 = getelementptr inbounds nuw %struct.anon, ptr %67, i32 0, i32 5
  %69 = getelementptr inbounds [8 x i8], ptr %17, i64 0, i64 0
  call void @keyboard_repeat_set_text(ptr noundef %68, ptr noundef %69)
  br label %70

70:                                               ; preds = %65, %56
  call void @llvm.lifetime.end.p0(i64 4, ptr %18) #10
  call void @llvm.lifetime.end.p0(i64 8, ptr %17) #10
  br label %71

71:                                               ; preds = %70, %27
  %72 = load i32, ptr %14, align 4
  %73 = load ptr, ptr %15, align 8
  %74 = getelementptr inbounds nuw %struct.SDL_WaylandSeat, ptr %73, i32 0, i32 8
  %75 = getelementptr inbounds nuw %struct.anon, ptr %74, i32 0, i32 11
  %76 = getelementptr inbounds nuw %struct.anon.0, ptr %75, i32 0, i32 4
  %77 = load i32, ptr %76, align 8
  %78 = icmp eq i32 %72, %77
  br i1 %78, label %79, label %80

79:                                               ; preds = %71
  store i32 1, ptr %16, align 4
  br label %87

80:                                               ; preds = %71
  %81 = load i32, ptr %14, align 4
  %82 = load ptr, ptr %15, align 8
  %83 = getelementptr inbounds nuw %struct.SDL_WaylandSeat, ptr %82, i32 0, i32 8
  %84 = getelementptr inbounds nuw %struct.anon, ptr %83, i32 0, i32 11
  %85 = getelementptr inbounds nuw %struct.anon.0, ptr %84, i32 0, i32 4
  store i32 %81, ptr %85, align 8
  %86 = load ptr, ptr %15, align 8
  call void @Wayland_UpdateKeymap(ptr noundef %86)
  store i32 0, ptr %16, align 4
  br label %87

87:                                               ; preds = %80, %79, %26
  call void @llvm.lifetime.end.p0(i64 8, ptr %15) #10
  %88 = load i32, ptr %16, align 4
  switch i32 %88, label %90 [
    i32 0, label %89
    i32 1, label %89
  ]

89:                                               ; preds = %87, %87
  ret void

90:                                               ; preds = %87
  unreachable
}