; Function Attrs: nounwind uwtable
define internal void @keyboard_handle_modifiers(ptr noundef captures(none) %0, ptr readnone captures(none) %1, i32 %2, i32 noundef %3, i32 noundef %4, i32 noundef %5, i32 noundef %6) #0 {
  %8 = alloca ptr, align 8
  %9 = alloca [8 x i8], align 1
  %10 = getelementptr inbounds nuw i8, ptr %0, i64 200
  %11 = load ptr, ptr %10, align 8
  %12 = icmp eq ptr %11, null
  br i1 %12, label %67, label %13

13:                                               ; preds = %7
  %14 = load ptr, ptr @WAYLAND_xkb_state_update_mask, align 8
  %15 = tail call i32 %14(ptr noundef nonnull %11, i32 noundef %3, i32 noundef %4, i32 noundef %5, i32 noundef 0, i32 noundef 0, i32 noundef %6) #12
  %16 = getelementptr inbounds nuw i8, ptr %0, i64 260
  store i32 %3, ptr %16, align 4
  %17 = or i32 %5, %4
  %18 = getelementptr inbounds nuw i8, ptr %0, i64 264
  store i32 %17, ptr %18, align 8
  tail call fastcc void @Wayland_ReconcileModifiers(ptr noundef nonnull %0, i1 noundef zeroext false)
  %19 = getelementptr inbounds nuw i8, ptr %0, i64 116
  %20 = load i8, ptr %19, align 4, !range !6, !noundef !7
  %21 = trunc nuw i8 %20 to i1
  br i1 %21, label %keyboard_repeat_is_set.exit, label %keyboard_repeat_is_set.exit.thread

keyboard_repeat_is_set.exit:                      ; preds = %13
  %22 = getelementptr inbounds nuw i8, ptr %0, i64 117
  %23 = load i8, ptr %22, align 1, !range !6, !noundef !7
  %24 = trunc nuw i8 %23 to i1
  br i1 %24, label %keyboard_repeat_get_key.exit, label %keyboard_repeat_is_set.exit.thread

keyboard_repeat_get_key.exit:                     ; preds = %keyboard_repeat_is_set.exit
  call void @llvm.lifetime.start.p0(i64 8, ptr nonnull %9) #12
  %25 = getelementptr inbounds nuw i8, ptr %0, i64 120
  %26 = load i32, ptr %25, align 8
  %27 = add i32 %26, 8
  call void @llvm.lifetime.start.p0(i64 8, ptr nonnull %8) #12
  %28 = getelementptr inbounds nuw i8, ptr %0, i64 88
  %29 = load ptr, ptr %28, align 8
  %.not.i = icmp eq ptr %29, null
  br i1 %.not.i, label %keyboard_input_get_text.exit.thread, label %30

30:                                               ; preds = %keyboard_repeat_get_key.exit
  %31 = load ptr, ptr %10, align 8
  %.not23.i = icmp eq ptr %31, null
  br i1 %.not23.i, label %keyboard_input_get_text.exit.thread, label %32

32:                                               ; preds = %30
  %33 = load ptr, ptr @WAYLAND_xkb_state_key_get_syms, align 8
  %34 = call i32 %33(ptr noundef nonnull %31, i32 noundef %27, ptr noundef nonnull %8) #12
  %.not24.i = icmp eq i32 %34, 1
  br i1 %.not24.i, label %35, label %keyboard_input_get_text.exit.thread

35:                                               ; preds = %32
  %36 = load ptr, ptr %8, align 8
  %37 = load i32, ptr %36, align 4
  %38 = call zeroext i1 @SDL_IME_ProcessKeyEvent(i32 noundef %37, i32 noundef %27, i1 noundef zeroext true) #12
  br i1 %38, label %keyboard_input_get_text.exit.thread26, label %39

39:                                               ; preds = %35
  %40 = getelementptr inbounds nuw i8, ptr %0, i64 216
  %41 = load ptr, ptr %40, align 8
  %.not25.i = icmp eq ptr %41, null
  br i1 %.not25.i, label %keyboard_input_get_text.exit, label %42

42:                                               ; preds = %39
  %43 = load ptr, ptr @WAYLAND_xkb_compose_state_feed, align 8
  %44 = call i32 %43(ptr noundef nonnull %41, i32 noundef %37) #12
  %45 = icmp eq i32 %44, 1
  br i1 %45, label %46, label %keyboard_input_get_text.exit

46:                                               ; preds = %42
  %47 = load ptr, ptr @WAYLAND_xkb_compose_state_get_status, align 8
  %48 = load ptr, ptr %40, align 8
  %49 = call i32 %47(ptr noundef %48) #12
  switch i32 %49, label %50 [
    i32 1, label %keyboard_input_get_text.exit.thread26
    i32 2, label %51
    i32 0, label %keyboard_input_get_text.exit
  ]

50:                                               ; preds = %46
  br label %keyboard_input_get_text.exit

51:                                               ; preds = %46
  %52 = load ptr, ptr @WAYLAND_xkb_compose_state_get_one_sym, align 8
  %53 = load ptr, ptr %40, align 8
  %54 = call i32 %52(ptr noundef %53) #12
  br label %keyboard_input_get_text.exit

keyboard_input_get_text.exit.thread:              ; preds = %30, %keyboard_repeat_get_key.exit, %32
  call void @llvm.lifetime.end.p0(i64 8, ptr nonnull %8) #12
  br label %keyboard_repeat_set_text.exit

keyboard_input_get_text.exit.thread26:            ; preds = %35, %46
  call void @llvm.lifetime.end.p0(i64 8, ptr nonnull %8) #12
  br label %58

keyboard_input_get_text.exit:                     ; preds = %39, %42, %46, %50, %51
  %.0.i23 = phi i32 [ 0, %50 ], [ %37, %46 ], [ %54, %51 ], [ %37, %42 ], [ %37, %39 ]
  %55 = load ptr, ptr @WAYLAND_xkb_keysym_to_utf8, align 8
  %56 = call i32 %55(i32 noundef %.0.i23, ptr noundef nonnull %9, i64 noundef 8) #12
  %57 = icmp sgt i32 %56, 0
  call void @llvm.lifetime.end.p0(i64 8, ptr nonnull %8) #12
  br i1 %57, label %58, label %keyboard_repeat_set_text.exit

58:                                               ; preds = %keyboard_input_get_text.exit.thread26, %keyboard_input_get_text.exit
  %59 = load i8, ptr %19, align 4, !range !6, !noundef !7
  %60 = trunc nuw i8 %59 to i1
  br i1 %60, label %61, label %keyboard_repeat_set_text.exit

61:                                               ; preds = %58
  %.val = load i8, ptr %9, align 1
  %62 = getelementptr inbounds nuw i8, ptr %0, i64 156
  store i8 %.val, ptr %62, align 4
  br label %keyboard_repeat_set_text.exit

keyboard_repeat_set_text.exit:                    ; preds = %61, %58, %keyboard_input_get_text.exit.thread, %keyboard_input_get_text.exit
  call void @llvm.lifetime.end.p0(i64 8, ptr nonnull %9) #12
  br label %keyboard_repeat_is_set.exit.thread

keyboard_repeat_is_set.exit.thread:               ; preds = %13, %keyboard_repeat_set_text.exit, %keyboard_repeat_is_set.exit
  %63 = getelementptr inbounds nuw i8, ptr %0, i64 224
  %64 = load i32, ptr %63, align 8
  %65 = icmp eq i32 %6, %64
  br i1 %65, label %67, label %66

66:                                               ; preds = %keyboard_repeat_is_set.exit.thread
  store i32 %6, ptr %63, align 8
  call fastcc void @Wayland_UpdateKeymap(ptr noundef nonnull %0)
  br label %67

67:                                               ; preds = %keyboard_repeat_is_set.exit.thread, %7, %66
  ret void
}